ccopy_reg
_reconstructor
p0
(cnetworkx.classes.digraph
DiGraph
p1
c__builtin__
object
p2
Ntp3
Rp4
(dp5
S'node'
p6
(dp7
I0
(dp8
S'keys'
p9
I11
sS'xyz'
p10
cnumpy.core.multiarray
_reconstruct
p11
(cnumpy
ndarray
p12
(I0
tp13
S'b'
p14
tp15
Rp16
(I1
(I3
tp17
cnumpy
dtype
p18
(S'f8'
p19
I0
I1
tp20
Rp21
(I3
S'<'
p22
NNNI-1
I-1
I0
tp23
bI00
S'\xb9\t\xed~\x19\xec\xb4\xbfB\x96\x01\xa4\xc9\xaa\xeb\xbf"K\x85\x0e\xbe\xba\xdf?'
p24
tp25
bsS'xy'
p26
g11
(g12
(I0
tp27
g14
tp28
Rp29
(I1
(I2
tp30
g21
I00
S'\x08\xa9\xc9\xcafF\xdd>\xbd\x03W\xe5b\x9d\x05?'
p31
tp32
bsS'geo'
p33
g11
(g12
(I0
tp34
g14
tp35
Rp36
(I1
(I2
tp37
g21
I00
S'\x97r\xb2,d\x99\xe0?\xc4\x92n\x19\x04\xa4\xfa\xbf'
p38
tp39
bsS'name'
p40
S'45 90 180 Eng'
p41
ssI1
(dp42
g9
I6
sg10
g11
(g12
(I0
tp43
g14
tp44
Rp45
(I1
(I3
tp46
g21
I00
S't\x1cF\xf5\x90\xeb\xb4\xbfp\xaa>0\xce\xaa\xeb\xbf\xa2\xfe:\xd2\xb3\xba\xdf?'
p47
tp48
bsg26
g11
(g12
(I0
tp49
g14
tp50
Rp51
(I1
(I2
tp52
g21
I00
S'[O\x16\x0bK\x07\xf0>\xdd\x89S\x87>$\x04?'
p53
tp54
bsg33
g11
(g12
(I0
tp55
g14
tp56
Rp57
(I1
(I2
tp58
g21
I00
S'W\xb9\x19H^\x99\xe0?\xe7\xb6\x01\x12\xfa\xa3\xfa\xbf'
p59
tp60
bsg40
S'Abercrombie Relief'
p61
ssI2
(dp62
g9
I2
sg10
g11
(g12
(I0
tp63
g14
tp64
Rp65
(I1
(I3
tp66
g21
I00
S'Z\xb3\x9cV8\xeb\xb4\xbf\xecJ\xa5\x0f\x0e\xab\xeb\xbfS\x97\xf8\xac\xd8\xb9\xdf?'
p67
tp68
bsg26
g11
(g12
(I0
tp69
g14
tp70
Rp71
(I1
(I2
tp72
g21
I00
S'\n!{\x95_\x8c\xf8>\xc3s\xfb\x87\xf7\xcc\xf6\xbe'
p73
tp74
bsg33
g11
(g12
(I0
tp75
g14
tp76
Rp77
(I1
(I2
tp78
g21
I00
S'\xfa7$\x1d\xe0\x98\xe0?\xddm\xcdB\xf0\xa3\xfa\xbf'
p79
tp80
bsg40
S'Baker College'
p81
ssI3
(dp82
g9
I17
sg10
g11
(g12
(I0
tp83
g14
tp84
Rp85
(I1
(I3
tp86
g21
I00
S'\xb61[O\x87\xee\xb4\xbfLEd\xfd\x0f\xab\xeb\xbf\x89\xea_\x08\xaf\xb9\xdf?'
p87
tp88
bsg26
g11
(g12
(I0
tp89
g14
tp90
Rp91
(I1
(I2
tp92
g21
I00
S'\xed-\xff\x9f\xc9\x0f\xfc\xbe\xf0\xc6\xfco\xd7d\x01\xbf'
p93
tp94
bsg33
g11
(g12
(I0
tp95
g14
tp96
Rp97
(I1
(I2
tp98
g21
I00
S'u\xf0\xae#\xc8\x98\xe0?\x95\xf7l\xd6,\xa4\xfa\xbf'
p99
tp100
bsg40
S'Berlin Wall'
p101
ssI4
(dp102
g9
I6
sg10
g11
(g12
(I0
tp103
g14
tp104
Rp105
(I1
(I3
tp106
g21
I00
S'Ig\x88\x08|\xe8\xb4\xbf\xa6Bb\xed\xc9\xaa\xeb\xbfS\x01$/\xe3\xba\xdf?'
p107
tp108
bsg26
g11
(g12
(I0
tp109
g14
tp110
Rp111
(I1
(I2
tp112
g21
I00
S'&^\xf0\x90\xae:\x10?\xf9\x0f\xabL\x93\xf5\n?'
p113
tp114
bsg33
g11
(g12
(I0
tp115
g14
tp116
Rp117
(I1
(I2
tp118
g21
I00
S'L\x9b\xdf\x8cy\x99\xe0?[\\\xb1\xc6\xc1\xa3\xfa\xbf'
p119
tp120
bsg40
S'Brown College'
p121
ssI5
(dp122
g9
I11
sg10
g11
(g12
(I0
tp123
g14
tp124
Rp125
(I1
(I3
tp126
g21
I00
S'z\xcf`6\n\xe8\xb4\xbf\x8eZ\xcc\xb8\xc9\xaa\xeb\xbf\xa0\x91\x83\x96\xe8\xba\xdf?'
p127
tp128
bsg26
g11
(g12
(I0
tp129
g14
tp130
Rp131
(I1
(I2
tp132
g21
I00
S'\xbf`eyS\xff\x11?5K\x87\xa2\xb9\xbc\x0b?'
p133
tp134
bsg33
g11
(g12
(I0
tp135
g14
tp136
Rp137
(I1
(I2
tp138
g21
I00
S'\x0bfV\xa9|\x99\xe0?\x1b\xc2\xd4\xa1\xb9\xa3\xfa\xbf'
p139
tp140
bsg40
S'Brown Obelisk'
p141
ssI6
(dp142
g9
I8
sg10
g11
(g12
(I0
tp143
g14
tp144
Rp145
(I1
(I3
tp146
g21
I00
S'#\xe5\x15\xd1E\xef\xb4\xbfX7\xf4\x0c\x00\xab\xeb\xbfz.o\xc7\xde\xb9\xdf?'
p147
tp148
bsg26
g11
(g12
(I0
tp149
g14
tp150
Rp151
(I1
(I2
tp152
g21
I00
S'\xfeWo\xda0U\x04\xbf4\xc3\xd51 \x0b\xf5\xbe'
p153
tp154
bsg33
g11
(g12
(I0
tp155
g14
tp156
Rp157
(I1
(I2
tp158
g21
I00
S'>e\xad\xa0\xe3\x98\xe0?\xe03\xb2Y;\xa4\xfa\xbf'
p159
tp160
bsg40
S'Bull and Bear'
p161
ssI7
(dp162
g9
I7
sg10
g11
(g12
(I0
tp163
g14
tp164
Rp165
(I1
(I3
tp166
g21
I00
S'1B\x9e\x99\x8d\xe9\xb4\xbf\xa3\xfeS\x00\x00\xab\xeb\xbf\x9b\xd4\xc7M\x1b\xba\xdf?'
p167
tp168
bsg26
g11
(g12
(I0
tp169
g14
tp170
Rp171
(I1
(I2
tp172
g21
I00
S'\xb7\xdf\xd4{@8\t?\xe8\x18\xd2\xcb\xeb\xf6\xcc\xbe'
p173
tp174
bsg33
g11
(g12
(I0
tp175
g14
tp176
Rp177
(I1
(I2
tp178
g21
I00
S'\xce\x10\x13y\x06\x99\xe0?\xce\x91\xcdr\xd2\xa3\xfa\xbf'
p179
tp180
bsg40
S'Cohen Sundial'
p181
ssI8
(dp182
g9
I16
sg10
g11
(g12
(I0
tp183
g14
tp184
Rp185
(I1
(I3
tp186
g21
I00
S'W\xd0\xfbA8\xef\xb4\xbf#\xe1\x1d\x13\x04\xab\xeb\xbf\x05\x1e\xfeL\xd1\xb9\xdf?'
p187
tp188
bsg26
g11
(g12
(I0
tp189
g14
tp190
Rp191
(I1
(I2
tp192
g21
I00
S'\x12Z\xf2=\xf6\xd0\x03\xbf\xff\x03[y^\xec\xf8\xbe'
p193
tp194
bsg33
g11
(g12
(I0
tp195
g14
tp196
Rp197
(I1
(I2
tp198
g21
I00
S'\xf2\xcb3\xde\xdb\x98\xe0?\xe2m*):\xa4\xfa\xbf'
p199
tp200
bsg40
S'Color Fount'
p201
ssI9
(dp202
g9
I10
sg10
g11
(g12
(I0
tp203
g14
tp204
Rp205
(I1
(I3
tp206
g21
I00
S'\xf9\x08_?\xd0\xea\xb4\xbf\x8f7\x98!\xd5\xaa\xeb\xbf\xf6-\xcc\x8b\xa3\xba\xdf?'
p207
tp208
bsg26
g11
(g12
(I0
tp209
g14
tp210
Rp211
(I1
(I2
tp212
g21
I00
S' + \x1f\x9dX\xfc>\xe4[\x88\x9e\x92\xcc\x01?'
p213
tp214
bsg33
g11
(g12
(I0
tp215
g14
tp216
Rp217
(I1
(I2
tp218
g21
I00
S'\xf6\x95V\xe9T\x99\xe0?\xdaV\x11\xe3\xeb\xa3\xfa\xbf'
p219
tp220
bsg40
S'Duncan Hall'
p221
ssI10
(dp222
g9
I11
sg10
g11
(g12
(I0
tp223
g14
tp224
Rp225
(I1
(I3
tp226
g21
I00
S'\x03\xa3\xea\x89\x1c\xec\xb4\xbf\x1c\xd1\x16>\xe0\xaa\xeb\xbf\xca\x8c\xbe\x18o\xba\xdf?'
p227
tp228
bsg26
g11
(g12
(I0
tp229
g14
tp230
Rp231
(I1
(I2
tp232
g21
I00
S'\xd8\x9b\x0bB\xd1b\xe0>.?i\xab\xe6\x7f\xf4>'
p233
tp234
bsg33
g11
(g12
(I0
tp235
g14
tp236
Rp237
(I1
(I2
tp238
g21
I00
S'\xf3\xb8\xf3\xb66\x99\xe0?w\x9c\xc0\x17\x03\xa4\xfa\xbf'
p239
tp240
bsg40
S'Edgar Lovett'
p241
ssI11
(dp242
g9
I18
sg10
g11
(g12
(I0
tp243
g14
tp244
Rp245
(I1
(I3
tp246
g21
I00
S'\x95\x83\xe4$\xe3\xeb\xb4\xbf\xfd4\x19i\xfe\xaa\xeb\xbf\xeb\xd1\x1f;\x08\xba\xdf?'
p247
tp248
bsg26
g11
(g12
(I0
tp249
g14
tp250
Rp251
(I1
(I2
tp252
g21
I00
S'\x9b\xee\xefH%^\xea>C>\x890\x1c9\xe2\xbe'
p253
tp254
bsg33
g11
(g12
(I0
tp255
g14
tp256
Rp257
(I1
(I2
tp258
g21
I00
S'Yc\x06~\xfb\x98\xe0?\xc5\xef\xa2X\xfd\xa3\xfa\xbf'
p259
tp260
bsg40
S'Fondren Library'
p261
ssI12
(dp262
g9
I8
sg10
g11
(g12
(I0
tp263
g14
tp264
Rp265
(I1
(I3
tp266
g21
I00
S'Vq\xbc\xfa\xb1\xee\xb4\xbfx{\xd5\x15\xe2\xaa\xeb\xbf\xb6T\xd2fM\xba\xdf?'
p267
tp268
bsg26
g11
(g12
(I0
tp269
g14
tp270
Rp271
(I1
(I2
tp272
g21
I00
S'(vP\xf8;p\x00\xbf\x1a,m\x82\xc1\x99\xe5>'
p273
tp274
bsg33
g11
(g12
(I0
tp275
g14
tp276
Rp277
(I1
(I2
tp278
g21
I00
S'\xb5\xb9\xc3P#\x99\xe0?\x04s\x01b2\xa4\xfa\xbf'
p279
tp280
bsg40
S'J Sayles Court'
p281
ssI13
(dp282
g9
I9
sg10
g11
(g12
(I0
tp283
g14
tp284
Rp285
(I1
(I3
tp286
g21
I00
S'\xf9e\xfd\xbb\xc2\xf0\xb4\xbf\xd9\xb6v\xe8\t\xab\xeb\xbf\x9e\xc4+\xae\xac\xb9\xdf?'
p287
tp288
bsg26
g11
(g12
(I0
tp289
g14
tp290
Rp291
(I1
(I2
tp292
g21
I00
S'\xe2\xb6\xb1Y\xa1\xf3\x0f\xbf\x82\xaa\x93\x97f\xbb\x01\xbf'
p293
tp294
bsg33
g11
(g12
(I0
tp295
g14
tp296
Rp297
(I1
(I2
tp298
g21
I00
S'X\xbc\xfc\xc8\xc6\x98\xe0?\xe6iI\x1bV\xa4\xfa\xbf'
p299
tp300
bsg40
S'James Skyspace'
p301
ssI14
(dp302
g9
I2
sg10
g11
(g12
(I0
tp303
g14
tp304
Rp305
(I1
(I3
tp306
g21
I00
S'\xc5YH\xa7I\xea\xb4\xbf\xc1\xbf\xda+ \xab\xeb\xbfx6\xa1U\xa3\xb9\xdf?'
p307
tp308
bsg26
g11
(g12
(I0
tp309
g14
tp310
Rp311
(I1
(I2
tp312
g21
I00
S'\xdf\xe6\xa1JF \x04?\x7f\xc1\x1a\x13\xd7\x13\x03\xbf'
p313
tp314
bsg33
g11
(g12
(I0
tp315
g14
tp316
Rp317
(I1
(I2
tp318
g21
I00
S'\x07\xaf\x92g\xc1\x98\xe0?\x98\xdf\xf0-\xde\xa3\xfa\xbf'
p319
tp320
bsg40
S'Lovett Gears'
p321
ssI15
(dp322
g9
I13
sg10
g11
(g12
(I0
tp323
g14
tp324
Rp325
(I1
(I3
tp326
g21
I00
S'DL:7\x00\xec\xb4\xbfj\x15\xe6n\xd2\xaa\xeb\xbf\x9d\xa8Pn\xa0\xba\xdf?'
p327
tp328
bsg26
g11
(g12
(I0
tp329
g14
tp330
Rp331
(I1
(I2
tp332
g21
I00
S'!\x0b\x13]j\x9c\xe2>\x06\x91\x0ec\xc3Y\x01?'
p333
tp334
bsg33
g11
(g12
(I0
tp335
g14
tp336
Rp337
(I1
(I2
tp338
g21
I00
S'1<3\x1eS\x99\xe0?\xa1\xee\xcb\xcf\x01\xa4\xfa\xbf'
p339
tp340
bsg40
S'Michael Heiz 180'
p341
ssI16
(dp342
g9
I2
sg10
g11
(g12
(I0
tp343
g14
tp344
Rp345
(I1
(I3
tp346
g21
I00
S'\xe8n\xb8~)\xec\xb4\xbf\x1b\x08*\x92\xcd\xaa\xeb\xbf\x9f\x1dY\xb0\xaf\xba\xdf?'
p347
tp348
bsg26
g11
(g12
(I0
tp349
g14
tp350
Rp351
(I1
(I2
tp352
g21
I00
S'{`1+c\x08\xda>\x85\xeeb\xba\xf8\x8b\x03?'
p353
tp354
bsg33
g11
(g12
(I0
tp355
g14
tp356
Rp357
(I1
(I2
tp358
g21
I00
S'\\-\n\xe7[\x99\xe0?\xcb\x02_\x08\x05\xa4\xfa\xbf'
p359
tp360
bsg40
S'Michael Heiz 45'
p361
ssI17
(dp362
g9
I15
sg10
g11
(g12
(I0
tp363
g14
tp364
Rp365
(I1
(I3
tp366
g21
I00
S'S\xbf)F\xe1\xeb\xb4\xbf\xd8\xcf\xa3\xa8\xcd\xaa\xeb\xbf]&\xe7[\xb2\xba\xdf?'
p367
tp368
bsg26
g11
(g12
(I0
tp369
g14
tp370
Rp371
(I1
(I2
tp372
g21
I00
S'\xc5K\xca\xdc\x1e\x03\xe6>aN;o\\\xee\x03?'
p373
tp374
bsg33
g11
(g12
(I0
tp375
g14
tp376
Rp377
(I1
(I2
tp378
g21
I00
S'*1\x96p]\x99\xe0?\xbc&~\xda\xff\xa3\xfa\xbf'
p379
tp380
bsg40
S'Michael Heiz 90'
p381
ssI18
(dp382
g9
I11
sg10
g11
(g12
(I0
tp383
g14
tp384
Rp385
(I1
(I3
tp386
g21
I00
S'\x19\xa3\x8a9Q\xed\xb4\xbfo\xac\xa7\xa6\xf3\xaa\xeb\xbf\xf3\xb5a\xac\x1e\xba\xdf?'
p387
tp388
bsg26
g11
(g12
(I0
tp389
g14
tp390
Rp391
(I1
(I2
tp392
g21
I00
S'\xdf6\xf8O\xac3\xe4\xbe(\xa0[\xb1\xce5\xc5\xbe'
p393
tp394
bsg33
g11
(g12
(I0
tp395
g14
tp396
Rp397
(I1
(I2
tp398
g21
I00
S'"w\xb1i\x08\x99\xe0?\x80JH(\x18\xa4\xfa\xbf'
p399
tp400
bsg40
S'Milus Garden'
p401
ssI19
(dp402
g9
I8
sg10
g11
(g12
(I0
tp403
g14
tp404
Rp405
(I1
(I3
tp406
g21
I00
S'M\x1bQ"i\xed\xb4\xbf\xa2\x91\x87c\x03\xab\xeb\xbf@@*\xca\xe6\xb9\xdf?'
p407
tp408
bsg26
g11
(g12
(I0
tp409
g14
tp410
Rp411
(I1
(I2
tp412
g21
I00
S'\xb1\xa2\x94\x192\xb2\xe5\xbee\x93\xfd\x91\xe9\xbc\xf2\xbe'
p413
tp414
bsg33
g11
(g12
(I0
tp415
g14
tp416
Rp417
(I1
(I2
tp418
g21
I00
S'\xa8pQ=\xe8\x98\xe0??4{\x04\x19\xa4\xfa\xbf'
p419
tp420
bsg40
S'Mirror'
p421
ssI20
(dp422
g9
I12
sg10
g11
(g12
(I0
tp423
g14
tp424
Rp425
(I1
(I3
tp426
g21
I00
S'\xecU\xf6":\xee\xb4\xbf\x97^\x86<\x0c\xab\xeb\xbf\xc0\x99\xf7N\xbf\xb9\xdf?'
p427
tp428
bsg26
g11
(g12
(I0
tp429
g14
tp430
Rp431
(I1
(I2
tp432
g21
I00
S'>#\x1f\xb7\xb5o\xf7\xbecC\xd1\x8dQ\x1a\xfe\xbe'
p433
tp434
bsg33
g11
(g12
(I0
tp435
g14
tp436
Rp437
(I1
(I2
tp438
g21
I00
S"\xd6\x13r\x82\xd1\x98\xe0?\xf9\x0e\x11\x83'\xa4\xfa\xbf"
p439
tp440
bsg40
S'Parque Tezontle'
p441
ssI21
(dp442
g9
I3
sg10
g11
(g12
(I0
tp443
g14
tp444
Rp445
(I1
(I3
tp446
g21
I00
S'<\r\x11\x14\x83\xed\xb4\xbf:\xbf\xd7j\xc3\xaa\xeb\xbf\xe5\x16\xf4\xdb\xc4\xba\xdf?'
p447
tp448
bsg26
g11
(g12
(I0
tp449
g14
tp450
Rp451
(I1
(I2
tp452
g21
I00
S'\xa2\x8f46\x06\xf2\xee\xbe\xaa]\xaeq\x0b\x98\x06?'
p453
tp454
bsg33
g11
(g12
(I0
tp455
g14
tp456
Rp457
(I1
(I2
tp458
g21
I00
S'a\x02N\x17h\x99\xe0?\xdb\x1c\xd7W\x1e\xa4\xfa\xbf'
p459
tp460
bsg40
S'Rice Owl (Car)'
p461
ssI22
(dp462
g9
I0
sg10
g11
(g12
(I0
tp463
g14
tp464
Rp465
(I1
(I3
tp466
g21
I00
S'KlD\xc2\x15\xf5\xb4\xbf\x1bc\x1d\x9e\x16\xab\xeb\xbfdt\x81\xa7R\xb9\xdf?'
p467
tp468
bsg26
g11
(g12
(I0
tp469
g14
tp470
Rp471
(I1
(I2
tp472
g21
I00
S'\x9f\xf2-\x95\xfd\x85 \xbf\x7f\xcf=\x07\xf9\xaf\x0e\xbf'
p473
tp474
bsg33
g11
(g12
(I0
tp475
g14
tp476
Rp477
(I1
(I2
tp478
g21
I00
S'\xa8`\xd5\xf4\x92\x98\xe0?\xbf\xbef\xba\xa4\xa4\xfa\xbf'
p479
tp480
bsg40
S'Rice Owl (Stad)'
p481
ssI23
(dp482
g9
I4
sg10
g11
(g12
(I0
tp483
g14
tp484
Rp485
(I1
(I3
tp486
g21
I00
S'\xa8\xb2\xad\xad\x0e\xec\xb4\xbf%\xfd\xa7!C\xab\xeb\xbfI`(\xb3\x16\xb9\xdf?'
p487
tp488
bsg26
g11
(g12
(I0
tp489
g14
tp490
Rp491
(I1
(I2
tp492
g21
I00
S'\x9a\xcfE1\xf5j\xeb>f\xbe\xd9\xb0\xcb\xa8\x13\xbf'
p493
tp494
bsg33
g11
(g12
(I0
tp495
g14
tp496
Rp497
(I1
(I2
tp498
g21
I00
S'V\x91\xc4pp\x98\xe0?\xfd[\x07\xbe\xfc\xa3\xfa\xbf'
p499
tp500
bsg40
S'Rice South Plant'
p501
ssI24
(dp502
g9
I8
sg10
g11
(g12
(I0
tp503
g14
tp504
Rp505
(I1
(I3
tp506
g21
I00
S'e/\x89\x01@\xf4\xb4\xbf\xca\xfd`\xce\x03\xab\xeb\xbfz\xad\x99\x1a\x9d\xb9\xdf?'
p507
tp508
bsg26
g11
(g12
(I0
tp509
g14
tp510
Rp511
(I1
(I2
tp512
g21
I00
S'\xb1\x8d\x06Ek\xf1\x1d\xbf\x8d\x1e\xcfC\xf7\xf8\x03\xbf'
p513
tp514
bsg33
g11
(g12
(I0
tp515
g14
tp516
Rp517
(I1
(I2
tp518
g21
I00
S'|\xfbK\xd1\xbd\x98\xe0?G\x15Zo\x96\xa4\xfa\xbf'
p519
tp520
bsg40
S'Rice Stadium'
p521
ssI25
(dp522
g9
I21
sg10
g11
(g12
(I0
tp523
g14
tp524
Rp525
(I1
(I3
tp526
g21
I00
S'\x19h\xa0\xe7(\xea\xb4\xbf+\xbe\x1c\xc4\xee\xaa\xeb\xbf4r\x84\x06Q\xba\xdf?'
p527
tp528
bsg26
g11
(g12
(I0
tp529
g14
tp530
Rp531
(I1
(I2
tp532
g21
I00
S'f\xe6\x08\xc9\x83\xfb\x03?_\xdb\xf2`\xed\xaf\xe7>'
p533
tp534
bsg33
g11
(g12
(I0
tp535
g14
tp536
Rp537
(I1
(I2
tp538
g21
I00
S'\x95,\xddf%\x99\xe0?\xd7\xbbE\x82\xde\xa3\xfa\xbf'
p539
tp540
bsg40
S'Rice Univ (Sally)'
p541
ssI26
(dp542
g9
I1
sg10
g11
(g12
(I0
tp543
g14
tp544
Rp545
(I1
(I3
tp546
g21
I00
S"n\x04\xccv\xf5\xe9\xb4\xbf\x19l'\xcd\xfa\xaa\xeb\xbf\xd9\xc2\xd5))\xba\xdf?"
p547
tp548
bsg26
g11
(g12
(I0
tp549
g14
tp550
Rp551
(I1
(I2
tp552
g21
I00
S'\xd2|w\x10\xb5\xdd\x05?\xa0,z\x11\x16\x9c\x97>'
p553
tp554
bsg33
g11
(g12
(I0
tp555
g14
tp556
Rp557
(I1
(I2
tp558
g21
I00
S'\xef<\xc5s\x0e\x99\xe0?\xf6g\xe8+\xda\xa3\xfa\xbf'
p559
tp560
bsg40
S'Rice Univ Art Gallery'
p561
ssI27
(dp562
g9
I4
sg10
g11
(g12
(I0
tp563
g14
tp564
Rp565
(I1
(I3
tp566
g21
I00
S"A\x9c\x8a\x9cx\xe6\xb4\xbfUl'\xe0\xda\xaa\xeb\xbfr=8K\xbd\xba\xdf?"
p567
tp568
bsg26
g11
(g12
(I0
tp569
g14
tp570
Rp571
(I1
(I2
tp572
g21
I00
S'\x92\xdf\xe9\xd8Br\x18?\xa58&l\x9b\x81\x05?'
p573
tp574
bsg33
g11
(g12
(I0
tp575
g14
tp576
Rp577
(I1
(I2
tp578
g21
I00
S'\xefLA\xbcc\x99\xe0?u/\xf1\xed\x9b\xa3\xfa\xbf'
p579
tp580
bsg40
S'Rice Univ Entrance'
p581
ssI28
(dp582
g9
I2
sg10
g11
(g12
(I0
tp583
g14
tp584
Rp585
(I1
(I3
tp586
g21
I00
S' Iy\xc3\xab\xed\xb4\xbf!F\xa3)\xdc\xaa\xeb\xbfK\xfd\x1b\xdfl\xba\xdf?'
p587
tp588
bsg26
g11
(g12
(I0
tp589
g14
tp590
Rp591
(I1
(I2
tp592
g21
I00
S'\x96\x97\xbbF\xfc\xd6\xf0\xbe\x02\xfe\xf70\xf0\xdb\xf3>'
p593
tp594
bsg33
g11
(g12
(I0
tp595
g14
tp596
Rp597
(I1
(I2
tp598
g21
I00
S'\x1d\x0b\xffn5\x99\xe0?\xcc\xe3\xc1\xea\x1f\xa4\xfa\xbf'
p599
tp600
bsg40
S'Rice Univ Physics Quad'
p601
ssI29
(dp602
g9
I13
sg10
g11
(g12
(I0
tp603
g14
tp604
Rp605
(I1
(I3
tp606
g21
I00
S'1\xabn[\xad\xf3\xb4\xbf\xd4\xb3\xb6\xf7/\xab\xeb\xbf]5\x0e\x18\t\xb9\xdf?'
p607
tp608
bsg26
g11
(g12
(I0
tp609
g14
tp610
Rp611
(I1
(I2
tp612
g21
I00
S'L\x1c\xe8Im$\x1b\xbf\xc5z-\xdd>\xa3\x14\xbf'
p613
tp614
bsg33
g11
(g12
(I0
tp615
g14
tp616
Rp617
(I1
(I2
tp618
g21
I00
S'\xc3q\x8d\x9bh\x98\xe0?\x10c^\x88\x89\xa4\xfa\xbf'
p619
tp620
bsg40
S'Rice Univ PO'
p621
ssI30
(dp622
g9
I1
sg10
g11
(g12
(I0
tp623
g14
tp624
Rp625
(I1
(I3
tp626
g21
I00
S'\xdb\x8a\x97\xf1\xae\xec\xb4\xbf\xf7Y\x90x \xab\xeb\xbf\x04\xfen\x03\x89\xb9\xdf?'
p627
tp628
bsg26
g11
(g12
(I0
tp629
g14
tp630
Rp631
(I1
(I2
tp632
g21
I00
S'#\x1f\xcc\xf3\x8e\xd8\xc0>#\xb9\xfd`\xb5\xdd\x06\xbf'
p633
tp634
bsg33
g11
(g12
(I0
tp635
g14
tp636
Rp637
(I1
(I2
tp638
g21
I00
S'\xd1\x1bS@\xb2\x98\xe0?n\x95#\x1a\n\xa4\xfa\xbf'
p639
tp640
bsg40
S'Rice Warrior'
p641
ssI31
(dp642
g9
I14
sg10
g11
(g12
(I0
tp643
g14
tp644
Rp645
(I1
(I3
tp646
g21
I00
S'\xab\xc7d\xd87\xeb\xb4\xbf|@y\x0e\xf3\xaa\xeb\xbfm\xb3T\xe56\xba\xdf?'
p647
tp648
bsg26
g11
(g12
(I0
tp649
g14
tp650
Rp651
(I1
(I2
tp652
g21
I00
S'E\x15(\xe7\xe8N\xf7>\x91\xd5\x8c\xfaHI\xd1>'
p653
tp654
bsg33
g11
(g12
(I0
tp655
g14
tp656
Rp657
(I1
(I2
tp658
g21
I00
S'\xc9\xe2\xb9[\x16\x99\xe0?A(=\xb0\xf1\xa3\xfa\xbf'
p659
tp660
bsg40
S'Statue of Willy Rice'
p661
ssI32
(dp662
g9
I2
sg10
g11
(g12
(I0
tp663
g14
tp664
Rp665
(I1
(I3
tp666
g21
I00
S'\x15\xe5\x14\xff\xc2\xeb\xb4\xbf\xc3A\xb2\xbf\xc8\xaa\xeb\xbf\xa9Ag\xbb\xc4\xba\xdf?'
p667
tp668
bsg26
g11
(g12
(I0
tp669
g14
tp670
Rp671
(I1
(I2
tp672
g21
I00
S'O\xf0.^hQ\xe9>\x04:][[\x93\x06?'
p673
tp674
bsg33
g11
(g12
(I0
tp675
g14
tp676
Rp677
(I1
(I2
tp678
g21
I00
S'\x1a|\x90\x04h\x99\xe0?\x8d\x83>\xf3\xfd\xa3\xfa\xbf'
p679
tp680
bsg40
S'The Bent Tau'
p681
ssI33
(dp682
g9
I5
sg10
g11
(g12
(I0
tp683
g14
tp684
Rp685
(I1
(I3
tp686
g21
I00
S';39\xea\xb2\xe8\xb4\xbf<\x07\x8e)\xc6\xaa\xeb\xbf\xdf8)\x0e\xee\xba\xdf?'
p687
tp688
bsg26
g11
(g12
(I0
tp689
g14
tp690
Rp691
(I1
(I2
tp692
g21
I00
S'\xaf\x08\xe6\x00\x95\xa9\x0e?\x84\x81tW"\x86\x0c?'
p693
tp694
bsg33
g11
(g12
(I0
tp695
g14
tp696
Rp697
(I1
(I2
tp698
g21
I00
S'\xee\xf3+\xcf\x7f\x99\xe0?\xf8~\x85\xe9\xc5\xa3\xfa\xbf'
p699
tp700
bsg40
S'The Sisters'
p701
ssI34
(dp702
g9
I1
sg10
g11
(g12
(I0
tp703
g14
tp704
Rp705
(I1
(I3
tp706
g21
I00
S'\x9a\xd7\xf1\x0c\x8c\xef\xb4\xbfwG0\xd1\xee\xaa\xeb\xbf\xee\\t\xff\x17\xba\xdf?'
p707
tp708
bsg26
g11
(g12
(I0
tp709
g14
tp710
Rp711
(I1
(I2
tp712
g21
I00
S'=B\x88\xf9^\xec\x06\xbf\x1e\x17\xff\xb9\x14J\xd2\xbe'
p713
tp714
bsg33
g11
(g12
(I0
tp715
g14
tp716
Rp717
(I1
(I2
tp718
g21
I00
S'\x9fm\xd3\x91\x04\x99\xe0?gs\x08QA\xa4\xfa\xbf'
p719
tp720
bsg40
S'W Edwin Plaza'
p721
ssI35
(dp722
g9
I4
sg10
g11
(g12
(I0
tp723
g14
tp724
Rp725
(I1
(I3
tp726
g21
I00
S'\xa8PkE:\xea\xb4\xbf\xa0&25(\xab\xeb\xbf\xb2f\xbe\xee\x87\xb9\xdf?'
p727
tp728
bsg26
g11
(g12
(I0
tp729
g14
tp730
Rp731
(I1
(I2
tp732
g21
I00
S'\xack\x14\x801\xcb\x04?^\x1b\xed\xbbx\x05\x07\xbf'
p733
tp734
bsg33
g11
(g12
(I0
tp735
g14
tp736
Rp737
(I1
(I2
tp738
g21
I00
S'w&\x08\xa1\xb1\x98\xe0?\xca\xdbd\xa4\xdc\xa3\xfa\xbf'
p739
tp740
bsg40
S'Zipcar'
p741
sssS'succ'
p742
(dp743
I0
(dp744
I16
(dp745
S'reversible'
p746
I01
sS'order'
p747
I25
sssI1
(dp748
I0
(dp749
g746
I01
sg747
I34
ssI17
(dp750
g746
I01
sg747
I32
ssI15
(dp751
g746
I01
sg747
I35
sssI2
(dp752
I3
(dp753
g746
I01
sg747
I79
sssI3
(dp754
cnumpy.core.multiarray
scalar
p755
(g18
(S'i4'
p756
I0
I1
tp757
Rp758
(I3
S'<'
p759
NNNI-1
I-1
I0
tp760
bS'\x1d\x00\x00\x00'
p761
tp762
Rp763
(dp764
g746
I01
sg747
I77
sssI4
(dp765
g755
(g758
S'\x05\x00\x00\x00'
p766
tp767
Rp768
(dp769
g746
I01
sg747
I16
sssI5
(dp770
I34
(dp771
g746
I00
sg747
I54
ssI18
(dp772
g746
I00
sg747
I63
ssI19
(dp773
g746
I00
sg747
I13
ssg755
(g758
S'\x1b\x00\x00\x00'
p774
tp775
Rp776
(dp777
g746
I01
sg747
I11
ssg755
(g758
S'\x1d\x00\x00\x00'
p778
tp779
Rp780
(dp781
g746
I01
sg747
I12
ssI31
(dp782
g746
I00
sg747
I14
sssI6
(dp783
g755
(g758
S'\x18\x00\x00\x00'
p784
tp785
Rp786
(dp787
g746
I01
sg747
I56
ssI10
(dp788
g746
I01
sg747
I55
sssI7
(dp789
sI8
(dp790
I18
(dp791
g746
I01
sg747
I59
ssI10
(dp792
g746
I01
sg747
I61
ssg755
(g758
S'\x05\x00\x00\x00'
p793
tp794
Rp795
(dp796
g746
I01
sg747
I62
sssI9
(dp797
g755
(g758
S'\x18\x00\x00\x00'
p798
tp799
Rp800
(dp801
g746
I01
sg747
I19
ssI4
(dp802
g746
I01
sg747
I18
sssI10
(dp803
g786
(dp804
g746
I01
sg747
I52
ssg795
(dp805
g746
I01
sg747
I53
sssI11
(dp806
I3
(dp807
g746
I01
sg747
I87
ssg763
(dp808
g746
I01
sg747
I86
sssI12
(dp809
g755
(g758
S'\x15\x00\x00\x00'
p810
tp811
Rp812
(dp813
g746
I01
sg747
I42
ssI15
(dp814
g746
I01
sg747
I43
sssI13
(dp815
g786
(dp816
g746
I01
sg747
I57
ssI6
(dp817
g746
I01
sg747
I58
sssI14
(dp818
I2
(dp819
g746
I01
sg747
I80
ssI3
(dp820
g746
I01
sg747
I74
ssI7
(dp821
g746
I01
sg747
I85
ssg755
(g758
S'#\x00\x00\x00'
p822
tp823
Rp824
(dp825
g746
I01
sg747
I72
ssg763
(dp826
g746
I01
sg747
I71
ssI30
(dp827
g746
I01
sg747
I76
sssI15
(dp828
I0
(dp829
g746
I01
sg747
I27
ssI16
(dp830
g746
I00
sg747
I29
ssI17
(dp831
g746
I00
sg747
I36
ssg755
(g758
S'!\x00\x00\x00'
p832
tp833
Rp834
(dp835
g746
I01
sg747
I37
sssI16
(dp836
g812
(dp837
g746
I01
sg747
I26
sssI17
(dp838
I0
(dp839
g746
I01
sg747
I33
sssI18
(dp840
I10
(dp841
g746
I01
sg747
I60
sssI19
(dp842
I20
(dp843
g746
I01
sg747
I0
ssI31
(dp844
g746
I01
sg747
I8
sssI20
(dp845
g780
(dp846
g746
I01
sg747
I1
sssI21
(dp847
I0
(dp848
g746
I01
sg747
I24
ssg834
(dp849
g746
I01
sg747
I38
ssI15
(dp850
g746
I01
sg747
I28
ssI32
(dp851
g746
I01
sg747
I30
sssI22
(dp852
g755
(g758
S'\x18\x00\x00\x00'
p853
tp854
Rp855
(dp856
g746
I01
sg747
I69
ssg755
(g758
S'\x1d\x00\x00\x00'
p857
tp858
Rp859
(dp860
g746
I01
sg747
I70
sssI23
(dp861
g755
(g758
S'#\x00\x00\x00'
p862
tp863
Rp864
(dp865
g746
I01
sg747
I95
ssg755
(g758
S'\x1d\x00\x00\x00'
p866
tp867
Rp868
(dp869
g746
I01
sg747
I94
sssI24
(dp870
I4
(dp871
g746
I01
sg747
I17
ssg768
(dp872
g746
I01
sg747
I15
ssI12
(dp873
g746
I00
sg747
I48
ssI15
(dp874
g746
I00
sg747
I47
ssg812
(dp875
g746
I01
sg747
I46
ssI28
(dp876
g746
I00
sg747
I49
sssI25
(dp877
I19
(dp878
g746
I01
sg747
I6
sssI26
(dp879
I2
(dp880
g746
I00
sg747
I83
ssI3
(dp881
g746
I01
sg747
I82
ssI14
(dp882
g746
I01
sg747
I81
ssI7
(dp883
g746
I01
sg747
I84
sssI27
(dp884
I3
(dp885
g746
I00
sg747
I90
ssI7
(dp886
g746
I00
sg747
I92
ssI11
(dp887
g746
I00
sg747
I93
ssI14
(dp888
g746
I00
sg747
I89
ssI19
(dp889
g746
I01
sg747
I3
ssI20
(dp890
g746
I00
sg747
I5
ssI25
(dp891
g746
I00
sg747
I10
ssI26
(dp892
g746
I00
sg747
I91
sssI28
(dp893
I12
(dp894
g746
I01
sg747
I45
ssI15
(dp895
g746
I01
sg747
I44
sssI29
(dp896
I6
(dp897
g746
I00
sg747
I66
ssI8
(dp898
g746
I00
sg747
I68
ssI10
(dp899
g746
I00
sg747
I65
ssI13
(dp900
g746
I00
sg747
I67
ssI19
(dp901
g746
I01
sg747
I2
ssg786
(dp902
g746
I01
sg747
I64
ssg776
(dp903
g746
I01
sg747
I4
ssI30
(dp904
g746
I00
sg747
I78
sssI30
(dp905
I3
(dp906
g746
I01
sg747
I75
sssI31
(dp907
I25
(dp908
g746
I01
sg747
I7
ssg776
(dp909
g746
I01
sg747
I9
sssI32
(dp910
I0
(dp911
g746
I01
sg747
I31
sssI33
(dp912
I0
(dp913
g746
I00
sg747
I39
ssI32
(dp914
g746
I00
sg747
I40
ssI4
(dp915
g746
I00
sg747
I22
ssg768
(dp916
g746
I01
sg747
I20
ssI1
(dp917
g746
I00
sg747
I41
ssI9
(dp918
g746
I00
sg747
I23
ssg800
(dp919
g746
I01
sg747
I21
sssI34
(dp920
g786
(dp921
g746
I01
sg747
I50
ssI10
(dp922
g746
I01
sg747
I51
sssI35
(dp923
g755
(g758
S'\x1b\x00\x00\x00'
p924
tp925
Rp926
(dp927
g746
I01
sg747
I88
ssg763
(dp928
g746
I01
sg747
I73
ssssS'edge'
p929
g743
sS'graph'
p930
(dp931
sS'pred'
p932
(dp933
I0
(dp934
I32
g911
sg834
g913
sI1
g749
sI15
g829
sI17
g839
sg812
g848
ssI1
(dp935
g834
g917
ssI2
(dp936
I26
g880
sg755
(g758
S'\x0e\x00\x00\x00'
p937
tp938
Rp939
g819
ssI3
(dp940
I2
g753
sI11
g807
sg939
g820
sI26
g881
sg926
g885
sI30
g906
ssI4
(dp941
g800
g871
sI9
g802
sg755
(g758
S'!\x00\x00\x00'
p942
tp943
Rp944
g915
ssI5
(dp945
I8
g796
sg944
g916
sI10
g805
sI4
g769
sg800
g872
ssI6
(dp946
I13
g817
sg755
(g758
S'\x1d\x00\x00\x00'
p947
tp948
Rp949
g897
ssI7
(dp950
g755
(g758
S'\x1a\x00\x00\x00'
p951
tp952
Rp953
g883
sg926
g886
sg939
g821
ssI8
(dp954
g949
g898
ssI9
(dp955
g944
g918
ssI10
(dp956
I8
g792
sI18
g841
sg755
(g758
S'"\x00\x00\x00'
p957
tp958
Rp959
g922
sI6
g788
sg949
g899
ssI11
(dp960
g926
g887
ssI12
(dp961
g755
(g758
S'\x18\x00\x00\x00'
p962
tp963
Rp964
g873
sI28
g894
ssI13
(dp965
g949
g900
ssI14
(dp966
I26
g882
sg926
g888
ssI15
(dp967
g964
g874
sI1
g751
sI12
g814
sg812
g850
sI28
g895
ssI16
(dp968
I0
g745
sI15
g830
ssI17
(dp969
I1
g750
sI15
g831
ssI18
(dp970
I8
g791
sg795
g772
ssI19
(dp971
I25
g878
sg776
g889
sg780
g901
sg755
(g758
S'\x05\x00\x00\x00'
p972
tp973
Rp974
g773
ssI20
(dp975
I19
g843
sg776
g890
ssI21
(dp976
I16
g837
sg964
g875
sI12
g813
ssI22
(dp977
sI23
(dp978
sI24
(dp979
g944
g919
sI34
g921
sI6
g787
sI9
g801
sI10
g804
sI13
g816
sg755
(g758
S'\x16\x00\x00\x00'
p980
tp981
Rp982
g856
sg949
g902
ssI25
(dp983
g776
g891
sI31
g908
ssI26
(dp984
g926
g892
ssI27
(dp985
I31
g909
sg824
g927
sg974
g777
sg780
g903
ssI28
(dp986
g964
g876
ssI29
(dp987
I3
g764
sg974
g781
sI11
g808
sI14
g826
sg824
g928
sI20
g846
sg982
g860
sg755
(g758
S'\x17\x00\x00\x00'
p988
tp989
Rp990
g869
ssI30
(dp991
g763
g904
sI14
g827
ssI31
(dp992
I19
g844
sg974
g782
ssI32
(dp993
g834
g914
sg755
(g758
S'\x15\x00\x00\x00'
p994
tp995
Rp996
g851
ssI33
(dp997
g812
g849
sI15
g835
ssI34
(dp998
g795
g771
ssI35
(dp999
g939
g825
sg990
g865
sssS'edgeStack'
p1000
(lp1001
(I19
I20
tp1002
a(I20
g780
tp1003
a(g780
I19
tp1004
a(g776
I19
tp1005
a(g780
g776
tp1006
a(g776
I20
tp1007
a(I25
I19
tp1008
a(I31
I25
tp1009
a(I19
I31
tp1010
a(I31
g776
tp1011
a(g776
I25
tp1012
a(g974
g776
tp1013
a(g974
g780
tp1014
a(g974
I19
tp1015
a(g974
I31
tp1016
a(g800
g768
tp1017
a(I4
g768
tp1018
a(g800
I4
tp1019
a(I9
I4
tp1020
a(I9
g800
tp1021
a(g944
g768
tp1022
a(g944
g800
tp1023
a(g944
I4
tp1024
a(g944
I9
tp1025
a(g812
I0
tp1026
a(I0
I16
tp1027
a(I16
g812
tp1028
a(I15
I0
tp1029
a(g812
I15
tp1030
a(I15
I16
tp1031
a(I32
g812
tp1032
a(I32
I0
tp1033
a(I1
I17
tp1034
a(I17
I0
tp1035
a(I1
I0
tp1036
a(I1
I15
tp1037
a(I15
I17
tp1038
a(I15
g834
tp1039
a(g812
g834
tp1040
a(g834
I0
tp1041
a(g834
I32
tp1042
a(g834
I1
tp1043
a(I12
g812
tp1044
a(I12
I15
tp1045
a(I28
I15
tp1046
a(I28
I12
tp1047
a(g964
g812
tp1048
a(g964
I15
tp1049
a(g964
I12
tp1050
a(g964
I28
tp1051
a(I34
g786
tp1052
a(I10
I34
tp1053
a(I10
g786
tp1054
a(I10
g795
tp1055
a(g795
I34
tp1056
a(I6
I10
tp1057
a(I6
g786
tp1058
a(I13
g786
tp1059
a(I13
I6
tp1060
a(I8
I18
tp1061
a(I18
I10
tp1062
a(I8
I10
tp1063
a(I8
g795
tp1064
a(g795
I18
tp1065
a(g949
g786
tp1066
a(g949
I10
tp1067
a(g949
I6
tp1068
a(g949
I13
tp1069
a(g949
I8
tp1070
a(g982
g855
tp1071
a(g982
g859
tp1072
a(I14
g763
tp1073
a(g824
I14
tp1074
a(g824
g763
tp1075
a(I3
I14
tp1076
a(I30
I3
tp1077
a(I14
I30
tp1078
a(I3
g763
tp1079
a(g763
I30
tp1080
a(I2
I3
tp1081
a(I2
I14
tp1082
a(I26
I14
tp1083
a(I26
I3
tp1084
a(I26
I2
tp1085
a(I7
I26
tp1086
a(I7
I14
tp1087
a(I11
g763
tp1088
a(I11
I3
tp1089
a(g824
g926
tp1090
a(g926
I14
tp1091
a(g926
I3
tp1092
a(g926
I26
tp1093
a(g926
I7
tp1094
a(g926
I11
tp1095
a(g990
g868
tp1096
a(g990
g864
tp1097
asS'adj'
p1098
g743
sb.